; Function Attrs: mustprogress uwtable
define void @_ZN19OpenColorIO_v2_4dev9ProcessorC2Ev(ptr nocapture noundef nonnull writeonly align 8 dereferenceable(8) %this) unnamed_addr #0 align 2 personality ptr @__gxx_personality_v0 {
entry:
  %call = tail call noalias noundef nonnull dereferenceable(552) ptr @_Znwm(i64 noundef 552) #21
  invoke void @_ZN19OpenColorIO_v2_4dev9Processor4ImplC1Ev(ptr noundef nonnull align 8 dereferenceable(552) %call)
          to label %invoke.cont unwind label %lpad

invoke.cont:                                      ; preds = %entry
  store ptr %call, ptr %this, align 8
  ret void

lpad:                                             ; preds = %entry
  %0 = landingpad { ptr, i32 }
          cleanup
  tail call void @_ZdlPv(ptr noundef nonnull %call) #23
  resume { ptr, i32 } %0
}